; Function Attrs: nofree norecurse nosync nounwind memory(readwrite, inaccessiblemem: none) uwtable
define void @Aig_ManResetRefs(ptr noundef readonly captures(none) %0) local_unnamed_addr #0 {
  %2 = getelementptr inbounds nuw i8, ptr %0, i64 32
  %3 = load ptr, ptr %2, align 8, !tbaa !21
  %4 = getelementptr i8, ptr %3, i64 4
  %.val2128 = load i32, ptr %4, align 4, !tbaa !22
  %5 = icmp sgt i32 %.val2128, 0
  br i1 %5, label %.lr.ph, label %.critedge2

.critedge.preheader:                              ; preds = %16
  %6 = icmp sgt i32 %.val21, 0
  br i1 %6, label %.lr.ph32, label %.critedge2

.lr.ph:                                           ; preds = %1, %16
  %7 = phi ptr [ %17, %16 ], [ %3, %1 ]
  %indvars.iv = phi i64 [ %indvars.iv.next, %16 ], [ 0, %1 ]
  %8 = getelementptr i8, ptr %7, i64 8
  %.val23 = load ptr, ptr %8, align 8, !tbaa !24
  %9 = getelementptr inbounds nuw ptr, ptr %.val23, i64 %indvars.iv
  %10 = load ptr, ptr %9, align 8, !tbaa !25
  %11 = icmp eq ptr %10, null
  br i1 %11, label %16, label %12

12:                                               ; preds = %.lr.ph
  %13 = getelementptr inbounds nuw i8, ptr %10, i64 24
  %14 = load i64, ptr %13, align 8
  %15 = and i64 %14, -4294967233
  store i64 %15, ptr %13, align 8
  %.pre = load ptr, ptr %2, align 8, !tbaa !21
  br label %16

16:                                               ; preds = %12, %.lr.ph
  %17 = phi ptr [ %.pre, %12 ], [ %7, %.lr.ph ]
  %indvars.iv.next = add nuw nsw i64 %indvars.iv, 1
  %18 = getelementptr i8, ptr %17, i64 4
  %.val21 = load i32, ptr %18, align 4, !tbaa !22
  %19 = sext i32 %.val21 to i64
  %20 = icmp slt i64 %indvars.iv.next, %19
  br i1 %20, label %.lr.ph, label %.critedge.preheader, !llvm.loop !34

.lr.ph32:                                         ; preds = %.critedge.preheader, %.critedge
  %indvars.iv34 = phi i64 [ %indvars.iv.next35, %.critedge ], [ 0, %.critedge.preheader ]
  %21 = phi ptr [ %50, %.critedge ], [ %17, %.critedge.preheader ]
  %22 = getelementptr i8, ptr %21, i64 8
  %.val22 = load ptr, ptr %22, align 8, !tbaa !24
  %23 = getelementptr inbounds nuw ptr, ptr %.val22, i64 %indvars.iv34
  %24 = load ptr, ptr %23, align 8, !tbaa !25
  %25 = icmp eq ptr %24, null
  br i1 %25, label %.critedge, label %26

26:                                               ; preds = %.lr.ph32
  %27 = getelementptr i8, ptr %24, i64 8
  %.val25 = load ptr, ptr %27, align 8, !tbaa !32
  %28 = ptrtoint ptr %.val25 to i64
  %29 = and i64 %28, -2
  %.not = icmp eq i64 %29, 0
  br i1 %.not, label %38, label %30

30:                                               ; preds = %26
  %31 = inttoptr i64 %29 to ptr
  %32 = getelementptr inbounds nuw i8, ptr %31, i64 24
  %33 = load i64, ptr %32, align 8
  %34 = add i64 %33, 64
  %35 = and i64 %34, 4294967232
  %36 = and i64 %33, -4294967233
  %37 = or disjoint i64 %35, %36
  store i64 %37, ptr %32, align 8
  br label %38

38:                                               ; preds = %30, %26
  %39 = getelementptr i8, ptr %24, i64 16
  %.val26 = load ptr, ptr %39, align 8, !tbaa !35
  %40 = ptrtoint ptr %.val26 to i64
  %41 = and i64 %40, -2
  %.not20 = icmp eq i64 %41, 0
  br i1 %.not20, label %.critedge, label %42

42:                                               ; preds = %38
  %43 = inttoptr i64 %41 to ptr
  %44 = getelementptr inbounds nuw i8, ptr %43, i64 24
  %45 = load i64, ptr %44, align 8
  %46 = add i64 %45, 64
  %47 = and i64 %46, 4294967232
  %48 = and i64 %45, -4294967233
  %49 = or disjoint i64 %47, %48
  store i64 %49, ptr %44, align 8
  br label %.critedge

.critedge:                                        ; preds = %.lr.ph32, %42, %38
  %indvars.iv.next35 = add nuw nsw i64 %indvars.iv34, 1
  %50 = load ptr, ptr %2, align 8, !tbaa !21
  %51 = getelementptr i8, ptr %50, i64 4
  %.val = load i32, ptr %51, align 4, !tbaa !22
  %52 = sext i32 %.val to i64
  %53 = icmp slt i64 %indvars.iv.next35, %52
  br i1 %53, label %.lr.ph32, label %.critedge2, !llvm.loop !36

.critedge2:                                       ; preds = %.critedge, %1, %.critedge.preheader
  ret void
}